target datalayout = "e-m:e-p270:32:32-p271:32:32-p272:64:64-i64:64-i128:128-f80:128-n8:16:32:64-S128"
target triple = "x86_64-pc-linux-gnu"

; Function Attrs: null_pointer_is_valid sspstrong uwtable
define internal i32 @get_mq_pdu_len(ptr noundef %0, ptr noundef %1, i32 noundef %2, ptr noundef %3) #0 {
  %5 = alloca ptr, align 8
  %6 = alloca ptr, align 8
  %7 = alloca i32, align 4
  %8 = alloca ptr, align 8
  %9 = alloca i32, align 4
  %10 = alloca i32, align 4
  store ptr %0, ptr %5, align 8
  store ptr %1, ptr %6, align 8
  store i32 %2, ptr %7, align 4
  store ptr %3, ptr %8, align 8
  call void @llvm.lifetime.start.p0(i64 4, ptr %9) #9
  %11 = load ptr, ptr %6, align 8
  %12 = load i32, ptr %7, align 4
  %13 = call i32 @tvb_reported_length_remaining(ptr noundef %11, i32 noundef %12)
  store i32 %13, ptr %9, align 4
  %14 = load i32, ptr %9, align 4
  %15 = icmp uge i32 %14, 8
  br i1 %15, label %16, label %34

16:                                               ; preds = %4
  call void @llvm.lifetime.start.p0(i64 4, ptr %10) #9
  %17 = load ptr, ptr %6, align 8
  %18 = load i32, ptr %7, align 4
  %19 = add i32 %18, 0
  %20 = call i32 @tvb_get_ntohl(ptr noundef %17, i32 noundef %19)
  store i32 %20, ptr %10, align 4
  %21 = load i32, ptr %10, align 4
  %22 = and i32 %21, -256
  %23 = icmp eq i32 %22, 1414744064
  br i1 %23, label %28, label %24

24:                                               ; preds = %16
  %25 = load i32, ptr %10, align 4
  %26 = and i32 %25, -256
  %27 = icmp eq i32 %26, -471676928
  br i1 %27, label %28, label %33

28:                                               ; preds = %24, %16
  %29 = load ptr, ptr %6, align 8
  %30 = load i32, ptr %7, align 4
  %31 = add i32 %30, 4
  %32 = call i32 @tvb_get_ntohl(ptr noundef %29, i32 noundef %31)
  store i32 %32, ptr %9, align 4
  br label %33

33:                                               ; preds = %28, %24
  call void @llvm.lifetime.end.p0(i64 4, ptr %10) #9
  br label %34

34:                                               ; preds = %33, %4
  %35 = load i32, ptr %9, align 4
  call void @llvm.lifetime.end.p0(i64 4, ptr %9) #9
  ret i32 %35
}