; Function Attrs: null_pointer_is_valid sspstrong uwtable
define internal i32 @get_mq_pdu_len(ptr readnone captures(none) %0, ptr noundef %1, i32 noundef %2, ptr readnone captures(none) %3) #0 {
  %5 = tail call i32 @tvb_reported_length_remaining(ptr noundef %1, i32 noundef %2)
  %6 = icmp ugt i32 %5, 7
  br i1 %6, label %7, label %13

7:                                                ; preds = %4
  %8 = tail call i32 @tvb_get_ntohl(ptr noundef %1, i32 noundef %2)
  %9 = and i32 %8, -256
  switch i32 %9, label %13 [
    i32 1414744064, label %10
    i32 -471676928, label %10
  ]

10:                                               ; preds = %7, %7
  %11 = add i32 %2, 4
  %12 = tail call i32 @tvb_get_ntohl(ptr noundef %1, i32 noundef %11)
  br label %13

13:                                               ; preds = %10, %7, %4
  %.0 = phi i32 [ %5, %4 ], [ %12, %10 ], [ %5, %7 ]
  ret i32 %.0
}